target datalayout = "e-m:e-p270:32:32-p271:32:32-p272:64:64-i64:64-i128:128-f80:128-n8:16:32:64-S128"
target triple = "x86_64-pc-linux-gnu"

%union.anon.1 = type { i32 }
%struct.Header = type { ptr, i32, i32 }

@_ZL12nativeendian = internal constant %union.anon.1 { i32 1 }, align 4
@.str.57 = private unnamed_addr constant [23 x i8] c"variable-length format\00", align 1
@.str.58 = private unnamed_addr constant [24 x i8] c"format result too large\00", align 1

; Function Attrs: mustprogress nounwind uwtable
define internal void @_ZL10initheaderP9lua_StateP6Header(ptr noundef %0, ptr noundef %1) #1 {
  %3 = alloca ptr, align 8
  %4 = alloca ptr, align 8
  store ptr %0, ptr %3, align 8, !tbaa !20
  store ptr %1, ptr %4, align 8, !tbaa !113
  %5 = load ptr, ptr %3, align 8, !tbaa !20
  %6 = load ptr, ptr %4, align 8, !tbaa !113
  %7 = getelementptr inbounds nuw %struct.Header, ptr %6, i32 0, i32 0
  store ptr %5, ptr %7, align 8, !tbaa !115
  %8 = load i8, ptr @_ZL12nativeendian, align 4, !tbaa !26
  %9 = sext i8 %8 to i32
  %10 = load ptr, ptr %4, align 8, !tbaa !113
  %11 = getelementptr inbounds nuw %struct.Header, ptr %10, i32 0, i32 1
  store i32 %9, ptr %11, align 8, !tbaa !50
  %12 = load ptr, ptr %4, align 8, !tbaa !113
  %13 = getelementptr inbounds nuw %struct.Header, ptr %12, i32 0, i32 2
  store i32 1, ptr %13, align 4, !tbaa !116
  ret void
}

; Function Attrs: mustprogress uwtable
define internal noundef i32 @_ZL12str_packsizeP9lua_State(ptr noundef %0) #2 {
  %2 = alloca ptr, align 8
  %3 = alloca %struct.Header, align 8
  %4 = alloca ptr, align 8
  %5 = alloca i32, align 4
  %6 = alloca i32, align 4
  %7 = alloca i32, align 4
  %8 = alloca i32, align 4
  store ptr %0, ptr %2, align 8, !tbaa !20
  call void @llvm.lifetime.start.p0(i64 16, ptr %3) #13
  call void @llvm.lifetime.start.p0(i64 8, ptr %4) #13
  %9 = load ptr, ptr %2, align 8, !tbaa !20
  %10 = call noundef ptr @_Z17luaL_checklstringP9lua_StateiPm(ptr noundef %9, i32 noundef 1, ptr noundef null)
  store ptr %10, ptr %4, align 8, !tbaa !9
  call void @llvm.lifetime.start.p0(i64 4, ptr %5) #13
  store i32 0, ptr %5, align 4, !tbaa !24
  %11 = load ptr, ptr %2, align 8, !tbaa !20
  call void @_ZL10initheaderP9lua_StateP6Header(ptr noundef %11, ptr noundef %3)
  br label %12

12:                                               ; preds = %42, %1
  %13 = load ptr, ptr %4, align 8, !tbaa !9
  %14 = load i8, ptr %13, align 1, !tbaa !26
  %15 = sext i8 %14 to i32
  %16 = icmp ne i32 %15, 0
  br i1 %16, label %17, label %46

17:                                               ; preds = %12
  call void @llvm.lifetime.start.p0(i64 4, ptr %6) #13
  call void @llvm.lifetime.start.p0(i64 4, ptr %7) #13
  call void @llvm.lifetime.start.p0(i64 4, ptr %8) #13
  %18 = load i32, ptr %5, align 4, !tbaa !24
  %19 = sext i32 %18 to i64
  %20 = call noundef i32 @_ZL10getdetailsP6HeadermPPKcPiS4_(ptr noundef %3, i64 noundef %19, ptr noundef %4, ptr noundef %6, ptr noundef %7)
  store i32 %20, ptr %8, align 4, !tbaa !47
  %21 = load i32, ptr %8, align 4, !tbaa !47
  %22 = icmp ne i32 %21, 4
  br i1 %22, label %23, label %27

23:                                               ; preds = %17
  %24 = load i32, ptr %8, align 4, !tbaa !47
  %25 = icmp ne i32 %24, 5
  br i1 %25, label %26, label %27

26:                                               ; preds = %23
  br label %30

27:                                               ; preds = %23, %17
  %28 = load ptr, ptr %2, align 8, !tbaa !20
  call void @_Z14luaL_argerrorLP9lua_StateiPKc(ptr noundef %28, i32 noundef 1, ptr noundef @.str.57) #14
  unreachable

29:                                               ; No predecessors!
  br label %30

30:                                               ; preds = %29, %26
  %31 = load i32, ptr %7, align 4, !tbaa !24
  %32 = load i32, ptr %6, align 4, !tbaa !24
  %33 = add nsw i32 %32, %31
  store i32 %33, ptr %6, align 4, !tbaa !24
  %34 = load i32, ptr %5, align 4, !tbaa !24
  %35 = load i32, ptr %6, align 4, !tbaa !24
  %36 = sub nsw i32 1073741824, %35
  %37 = icmp sle i32 %34, %36
  br i1 %37, label %38, label %39

38:                                               ; preds = %30
  br label %42

39:                                               ; preds = %30
  %40 = load ptr, ptr %2, align 8, !tbaa !20
  call void @_Z14luaL_argerrorLP9lua_StateiPKc(ptr noundef %40, i32 noundef 1, ptr noundef @.str.58) #14
  unreachable

41:                                               ; No predecessors!
  br label %42

42:                                               ; preds = %41, %38
  %43 = load i32, ptr %6, align 4, !tbaa !24
  %44 = load i32, ptr %5, align 4, !tbaa !24
  %45 = add nsw i32 %44, %43
  store i32 %45, ptr %5, align 4, !tbaa !24
  call void @llvm.lifetime.end.p0(i64 4, ptr %8) #13
  call void @llvm.lifetime.end.p0(i64 4, ptr %7) #13
  call void @llvm.lifetime.end.p0(i64 4, ptr %6) #13
  br label %12, !llvm.loop !54

46:                                               ; preds = %12
  %47 = load ptr, ptr %2, align 8, !tbaa !20
  %48 = load i32, ptr %5, align 4, !tbaa !24
  call void @_Z15lua_pushintegerP9lua_Statei(ptr noundef %47, i32 noundef %48)
  call void @llvm.lifetime.end.p0(i64 4, ptr %5) #13
  call void @llvm.lifetime.end.p0(i64 8, ptr %4) #13
  call void @llvm.lifetime.end.p0(i64 16, ptr %3) #13
  ret i32 1
}