; Function Attrs: mustprogress uwtable
define internal noundef i32 @_ZL12str_packsizeP9lua_State(ptr noundef %0) #0 {
  %2 = alloca %struct.Header, align 8
  %3 = alloca ptr, align 8
  %4 = alloca i32, align 4
  %5 = alloca i32, align 4
  call void @llvm.lifetime.start.p0(i64 16, ptr nonnull %2) #14
  call void @llvm.lifetime.start.p0(i64 8, ptr nonnull %3) #14
  %6 = tail call noundef ptr @_Z17luaL_checklstringP9lua_StateiPm(ptr noundef %0, i32 noundef 1, ptr noundef null)
  store ptr %6, ptr %3, align 8, !tbaa !49
  store ptr %0, ptr %2, align 8, !tbaa !50
  %7 = getelementptr inbounds nuw i8, ptr %2, i64 8
  store i32 1, ptr %7, align 8, !tbaa !52
  %8 = getelementptr inbounds nuw i8, ptr %2, i64 12
  store i32 1, ptr %8, align 4, !tbaa !53
  %9 = load i8, ptr %6, align 1, !tbaa !8
  %.not14 = icmp eq i8 %9, 0
  br i1 %.not14, label %._crit_edge, label %.lr.ph

.lr.ph:                                           ; preds = %1, %20
  %.015 = phi i32 [ %21, %20 ], [ 0, %1 ]
  call void @llvm.lifetime.start.p0(i64 4, ptr nonnull %4) #14
  call void @llvm.lifetime.start.p0(i64 4, ptr nonnull %5) #14
  %10 = sext i32 %.015 to i64
  %11 = call fastcc noundef i32 @_ZL10getdetailsP6HeadermPPKcPiS4_(ptr noundef %2, i64 noundef %10, ptr noundef %3, ptr noundef %4, ptr noundef %5)
  %12 = add nsw i32 %11, -6
  %or.cond = icmp ult i32 %12, -2
  br i1 %or.cond, label %14, label %13

13:                                               ; preds = %.lr.ph
  tail call void @_Z14luaL_argerrorLP9lua_StateiPKc(ptr noundef %0, i32 noundef 1, ptr noundef nonnull @.str.57) #15
  unreachable

14:                                               ; preds = %.lr.ph
  %15 = load i32, ptr %5, align 4, !tbaa !43
  %16 = load i32, ptr %4, align 4, !tbaa !43
  %17 = add nsw i32 %16, %15
  %18 = sub nsw i32 1073741824, %17
  %.not11 = icmp sgt i32 %.015, %18
  br i1 %.not11, label %19, label %20

19:                                               ; preds = %14
  tail call void @_Z14luaL_argerrorLP9lua_StateiPKc(ptr noundef %0, i32 noundef 1, ptr noundef nonnull @.str.58) #15
  unreachable

20:                                               ; preds = %14
  %21 = add nsw i32 %17, %.015
  call void @llvm.lifetime.end.p0(i64 4, ptr nonnull %5) #14
  call void @llvm.lifetime.end.p0(i64 4, ptr nonnull %4) #14
  %22 = load ptr, ptr %3, align 8, !tbaa !49
  %23 = load i8, ptr %22, align 1, !tbaa !8
  %.not = icmp eq i8 %23, 0
  br i1 %.not, label %._crit_edge, label %.lr.ph, !llvm.loop !60

._crit_edge:                                      ; preds = %20, %1
  %.0.lcssa = phi i32 [ 0, %1 ], [ %21, %20 ]
  tail call void @_Z15lua_pushintegerP9lua_Statei(ptr noundef %0, i32 noundef %.0.lcssa)
  call void @llvm.lifetime.end.p0(i64 8, ptr nonnull %3) #14
  call void @llvm.lifetime.end.p0(i64 16, ptr nonnull %2) #14
  ret i32 1
}